target datalayout = "e-m:e-p270:32:32-p271:32:32-p272:64:64-i64:64-i128:128-f80:128-n8:16:32:64-S128"
target triple = "x86_64-pc-linux-gnu"

; Function Attrs: nounwind uwtable
define noalias ptr @pmix_path_access(ptr noundef %0, ptr noundef %1, i32 noundef %2) #0 {
  %4 = alloca ptr, align 8
  %5 = alloca ptr, align 8
  %6 = alloca ptr, align 8
  %7 = alloca i32, align 4
  %8 = alloca ptr, align 8
  %9 = alloca i32, align 4
  store ptr %0, ptr %5, align 8, !tbaa !3
  store ptr %1, ptr %6, align 8, !tbaa !3
  store i32 %2, ptr %7, align 4, !tbaa !11
  call void @llvm.lifetime.start.p0(i64 8, ptr %8) #8
  store ptr null, ptr %8, align 8, !tbaa !3
  %10 = load ptr, ptr %6, align 8, !tbaa !3
  %11 = icmp eq ptr null, %10
  br i1 %11, label %12, label %15

12:                                               ; preds = %3
  %13 = load ptr, ptr %5, align 8, !tbaa !3
  %14 = call noalias ptr (i32, ...) @pmix_os_path(i32 noundef 0, ptr noundef %13, ptr noundef null)
  store ptr %14, ptr %8, align 8, !tbaa !3
  br label %19

15:                                               ; preds = %3
  %16 = load ptr, ptr %6, align 8, !tbaa !3
  %17 = load ptr, ptr %5, align 8, !tbaa !3
  %18 = call noalias ptr (i32, ...) @pmix_os_path(i32 noundef 0, ptr noundef %16, ptr noundef %17, ptr noundef null)
  store ptr %18, ptr %8, align 8, !tbaa !3
  br label %19

19:                                               ; preds = %15, %12
  %20 = load ptr, ptr %8, align 8, !tbaa !3
  %21 = icmp eq ptr null, %20
  br i1 %21, label %22, label %23

22:                                               ; preds = %19
  store ptr null, ptr %4, align 8
  store i32 1, ptr %9, align 4
  br label %32

23:                                               ; preds = %19
  %24 = load ptr, ptr %8, align 8, !tbaa !3
  %25 = load i32, ptr %7, align 4, !tbaa !11
  %26 = call i32 @access(ptr noundef %24, i32 noundef %25) #8
  %27 = icmp ne i32 0, %26
  br i1 %27, label %28, label %30

28:                                               ; preds = %23
  %29 = load ptr, ptr %8, align 8, !tbaa !3
  call void @free(ptr noundef %29) #8
  store ptr null, ptr %4, align 8
  store i32 1, ptr %9, align 4
  br label %32

30:                                               ; preds = %23
  %31 = load ptr, ptr %8, align 8, !tbaa !3
  store ptr %31, ptr %4, align 8
  store i32 1, ptr %9, align 4
  br label %32

32:                                               ; preds = %30, %28, %22
  call void @llvm.lifetime.end.p0(i64 8, ptr %8) #8
  %33 = load ptr, ptr %4, align 8
  ret ptr %33
}