; Function Attrs: nounwind uwtable
define noalias ptr @pmix_path_access(ptr noundef %0, ptr noundef %1, i32 noundef %2) local_unnamed_addr #1 {
  %4 = icmp eq ptr %1, null
  br i1 %4, label %5, label %7

5:                                                ; preds = %3
  %6 = tail call noalias ptr (i32, ...) @pmix_os_path(i32 noundef 0, ptr noundef %0, ptr noundef null) #14
  br label %9

7:                                                ; preds = %3
  %8 = tail call noalias ptr (i32, ...) @pmix_os_path(i32 noundef 0, ptr noundef nonnull %1, ptr noundef %0, ptr noundef null) #14
  br label %9

9:                                                ; preds = %7, %5
  %.0 = phi ptr [ %6, %5 ], [ %8, %7 ]
  %10 = icmp eq ptr %.0, null
  br i1 %10, label %14, label %11

11:                                               ; preds = %9
  %12 = tail call i32 @access(ptr noundef nonnull %.0, i32 noundef %2) #14
  %.not = icmp eq i32 %12, 0
  br i1 %.not, label %14, label %13

13:                                               ; preds = %11
  tail call void @free(ptr noundef nonnull %.0) #14
  br label %14

14:                                               ; preds = %11, %9, %13
  %.09 = phi ptr [ null, %13 ], [ null, %9 ], [ %.0, %11 ]
  ret ptr %.09
}